target datalayout = "e-m:e-p270:32:32-p271:32:32-p272:64:64-i64:64-i128:128-f80:128-n8:16:32:64-S128"
target triple = "x86_64-pc-linux-gnu"

%struct.ge_p3 = type { [10 x i32], [10 x i32], [10 x i32], [10 x i32] }
%struct.ge_cached = type { [10 x i32], [10 x i32], [10 x i32], [10 x i32] }
%struct.ge_p1p1 = type { [10 x i32], [10 x i32], [10 x i32], [10 x i32] }

; Function Attrs: nounwind uwtable
define internal void @fe_sub(ptr noundef %0, ptr noundef %1, ptr noundef %2) #0 {
  %4 = alloca ptr, align 8
  %5 = alloca ptr, align 8
  %6 = alloca ptr, align 8
  %7 = alloca i32, align 4
  store ptr %0, ptr %4, align 8, !tbaa !13
  store ptr %1, ptr %5, align 8, !tbaa !13
  store ptr %2, ptr %6, align 8, !tbaa !13
  call void @llvm.lifetime.start.p0(i64 4, ptr %7) #5
  store i32 0, ptr %7, align 4, !tbaa !15
  br label %8

8:                                                ; preds = %27, %3
  %9 = load i32, ptr %7, align 4, !tbaa !15
  %10 = icmp ult i32 %9, 10
  br i1 %10, label %11, label %30

11:                                               ; preds = %8
  %12 = load ptr, ptr %5, align 8, !tbaa !13
  %13 = load i32, ptr %7, align 4, !tbaa !15
  %14 = zext i32 %13 to i64
  %15 = getelementptr inbounds nuw i32, ptr %12, i64 %14
  %16 = load i32, ptr %15, align 4, !tbaa !15
  %17 = load ptr, ptr %6, align 8, !tbaa !13
  %18 = load i32, ptr %7, align 4, !tbaa !15
  %19 = zext i32 %18 to i64
  %20 = getelementptr inbounds nuw i32, ptr %17, i64 %19
  %21 = load i32, ptr %20, align 4, !tbaa !15
  %22 = sub nsw i32 %16, %21
  %23 = load ptr, ptr %4, align 8, !tbaa !13
  %24 = load i32, ptr %7, align 4, !tbaa !15
  %25 = zext i32 %24 to i64
  %26 = getelementptr inbounds nuw i32, ptr %23, i64 %25
  store i32 %22, ptr %26, align 4, !tbaa !15
  br label %27

27:                                               ; preds = %11
  %28 = load i32, ptr %7, align 4, !tbaa !15
  %29 = add i32 %28, 1
  store i32 %29, ptr %7, align 4, !tbaa !15
  br label %8, !llvm.loop !31

30:                                               ; preds = %8
  call void @llvm.lifetime.end.p0(i64 4, ptr %7) #5
  ret void
}

; Function Attrs: nounwind uwtable
define internal void @fe_add(ptr noundef %0, ptr noundef %1, ptr noundef %2) #0 {
  %4 = alloca ptr, align 8
  %5 = alloca ptr, align 8
  %6 = alloca ptr, align 8
  %7 = alloca i32, align 4
  store ptr %0, ptr %4, align 8, !tbaa !13
  store ptr %1, ptr %5, align 8, !tbaa !13
  store ptr %2, ptr %6, align 8, !tbaa !13
  call void @llvm.lifetime.start.p0(i64 4, ptr %7) #5
  store i32 0, ptr %7, align 4, !tbaa !15
  br label %8

8:                                                ; preds = %27, %3
  %9 = load i32, ptr %7, align 4, !tbaa !15
  %10 = icmp ult i32 %9, 10
  br i1 %10, label %11, label %30

11:                                               ; preds = %8
  %12 = load ptr, ptr %5, align 8, !tbaa !13
  %13 = load i32, ptr %7, align 4, !tbaa !15
  %14 = zext i32 %13 to i64
  %15 = getelementptr inbounds nuw i32, ptr %12, i64 %14
  %16 = load i32, ptr %15, align 4, !tbaa !15
  %17 = load ptr, ptr %6, align 8, !tbaa !13
  %18 = load i32, ptr %7, align 4, !tbaa !15
  %19 = zext i32 %18 to i64
  %20 = getelementptr inbounds nuw i32, ptr %17, i64 %19
  %21 = load i32, ptr %20, align 4, !tbaa !15
  %22 = add nsw i32 %16, %21
  %23 = load ptr, ptr %4, align 8, !tbaa !13
  %24 = load i32, ptr %7, align 4, !tbaa !15
  %25 = zext i32 %24 to i64
  %26 = getelementptr inbounds nuw i32, ptr %23, i64 %25
  store i32 %22, ptr %26, align 4, !tbaa !15
  br label %27

27:                                               ; preds = %11
  %28 = load i32, ptr %7, align 4, !tbaa !15
  %29 = add i32 %28, 1
  store i32 %29, ptr %7, align 4, !tbaa !15
  br label %8, !llvm.loop !32

30:                                               ; preds = %8
  call void @llvm.lifetime.end.p0(i64 4, ptr %7) #5
  ret void
}

; Function Attrs: nounwind uwtable
define hidden void @x25519_ge_add(ptr noundef %0, ptr noundef %1, ptr noundef %2) #0 {
  %4 = alloca ptr, align 8
  %5 = alloca ptr, align 8
  %6 = alloca ptr, align 8
  %7 = alloca [10 x i32], align 16
  store ptr %0, ptr %4, align 8, !tbaa !11
  store ptr %1, ptr %5, align 8, !tbaa !11
  store ptr %2, ptr %6, align 8, !tbaa !11
  call void @llvm.lifetime.start.p0(i64 40, ptr %7) #5
  %8 = load ptr, ptr %4, align 8, !tbaa !11
  %9 = getelementptr inbounds nuw %struct.ge_p1p1, ptr %8, i32 0, i32 0
  %10 = getelementptr inbounds [10 x i32], ptr %9, i64 0, i64 0
  %11 = load ptr, ptr %5, align 8, !tbaa !11
  %12 = getelementptr inbounds nuw %struct.ge_p3, ptr %11, i32 0, i32 1
  %13 = getelementptr inbounds [10 x i32], ptr %12, i64 0, i64 0
  %14 = load ptr, ptr %5, align 8, !tbaa !11
  %15 = getelementptr inbounds nuw %struct.ge_p3, ptr %14, i32 0, i32 0
  %16 = getelementptr inbounds [10 x i32], ptr %15, i64 0, i64 0
  call void @fe_add(ptr noundef %10, ptr noundef %13, ptr noundef %16)
  %17 = load ptr, ptr %4, align 8, !tbaa !11
  %18 = getelementptr inbounds nuw %struct.ge_p1p1, ptr %17, i32 0, i32 1
  %19 = getelementptr inbounds [10 x i32], ptr %18, i64 0, i64 0
  %20 = load ptr, ptr %5, align 8, !tbaa !11
  %21 = getelementptr inbounds nuw %struct.ge_p3, ptr %20, i32 0, i32 1
  %22 = getelementptr inbounds [10 x i32], ptr %21, i64 0, i64 0
  %23 = load ptr, ptr %5, align 8, !tbaa !11
  %24 = getelementptr inbounds nuw %struct.ge_p3, ptr %23, i32 0, i32 0
  %25 = getelementptr inbounds [10 x i32], ptr %24, i64 0, i64 0
  call void @fe_sub(ptr noundef %19, ptr noundef %22, ptr noundef %25)
  %26 = load ptr, ptr %4, align 8, !tbaa !11
  %27 = getelementptr inbounds nuw %struct.ge_p1p1, ptr %26, i32 0, i32 2
  %28 = getelementptr inbounds [10 x i32], ptr %27, i64 0, i64 0
  %29 = load ptr, ptr %4, align 8, !tbaa !11
  %30 = getelementptr inbounds nuw %struct.ge_p1p1, ptr %29, i32 0, i32 0
  %31 = getelementptr inbounds [10 x i32], ptr %30, i64 0, i64 0
  %32 = load ptr, ptr %6, align 8, !tbaa !11
  %33 = getelementptr inbounds nuw %struct.ge_cached, ptr %32, i32 0, i32 0
  %34 = getelementptr inbounds [10 x i32], ptr %33, i64 0, i64 0
  call void @fe_mul(ptr noundef %28, ptr noundef %31, ptr noundef %34)
  %35 = load ptr, ptr %4, align 8, !tbaa !11
  %36 = getelementptr inbounds nuw %struct.ge_p1p1, ptr %35, i32 0, i32 1
  %37 = getelementptr inbounds [10 x i32], ptr %36, i64 0, i64 0
  %38 = load ptr, ptr %4, align 8, !tbaa !11
  %39 = getelementptr inbounds nuw %struct.ge_p1p1, ptr %38, i32 0, i32 1
  %40 = getelementptr inbounds [10 x i32], ptr %39, i64 0, i64 0
  %41 = load ptr, ptr %6, align 8, !tbaa !11
  %42 = getelementptr inbounds nuw %struct.ge_cached, ptr %41, i32 0, i32 1
  %43 = getelementptr inbounds [10 x i32], ptr %42, i64 0, i64 0
  call void @fe_mul(ptr noundef %37, ptr noundef %40, ptr noundef %43)
  %44 = load ptr, ptr %4, align 8, !tbaa !11
  %45 = getelementptr inbounds nuw %struct.ge_p1p1, ptr %44, i32 0, i32 3
  %46 = getelementptr inbounds [10 x i32], ptr %45, i64 0, i64 0
  %47 = load ptr, ptr %6, align 8, !tbaa !11
  %48 = getelementptr inbounds nuw %struct.ge_cached, ptr %47, i32 0, i32 3
  %49 = getelementptr inbounds [10 x i32], ptr %48, i64 0, i64 0
  %50 = load ptr, ptr %5, align 8, !tbaa !11
  %51 = getelementptr inbounds nuw %struct.ge_p3, ptr %50, i32 0, i32 3
  %52 = getelementptr inbounds [10 x i32], ptr %51, i64 0, i64 0
  call void @fe_mul(ptr noundef %46, ptr noundef %49, ptr noundef %52)
  %53 = load ptr, ptr %4, align 8, !tbaa !11
  %54 = getelementptr inbounds nuw %struct.ge_p1p1, ptr %53, i32 0, i32 0
  %55 = getelementptr inbounds [10 x i32], ptr %54, i64 0, i64 0
  %56 = load ptr, ptr %5, align 8, !tbaa !11
  %57 = getelementptr inbounds nuw %struct.ge_p3, ptr %56, i32 0, i32 2
  %58 = getelementptr inbounds [10 x i32], ptr %57, i64 0, i64 0
  %59 = load ptr, ptr %6, align 8, !tbaa !11
  %60 = getelementptr inbounds nuw %struct.ge_cached, ptr %59, i32 0, i32 2
  %61 = getelementptr inbounds [10 x i32], ptr %60, i64 0, i64 0
  call void @fe_mul(ptr noundef %55, ptr noundef %58, ptr noundef %61)
  %62 = getelementptr inbounds [10 x i32], ptr %7, i64 0, i64 0
  %63 = load ptr, ptr %4, align 8, !tbaa !11
  %64 = getelementptr inbounds nuw %struct.ge_p1p1, ptr %63, i32 0, i32 0
  %65 = getelementptr inbounds [10 x i32], ptr %64, i64 0, i64 0
  %66 = load ptr, ptr %4, align 8, !tbaa !11
  %67 = getelementptr inbounds nuw %struct.ge_p1p1, ptr %66, i32 0, i32 0
  %68 = getelementptr inbounds [10 x i32], ptr %67, i64 0, i64 0
  call void @fe_add(ptr noundef %62, ptr noundef %65, ptr noundef %68)
  %69 = load ptr, ptr %4, align 8, !tbaa !11
  %70 = getelementptr inbounds nuw %struct.ge_p1p1, ptr %69, i32 0, i32 0
  %71 = getelementptr inbounds [10 x i32], ptr %70, i64 0, i64 0
  %72 = load ptr, ptr %4, align 8, !tbaa !11
  %73 = getelementptr inbounds nuw %struct.ge_p1p1, ptr %72, i32 0, i32 2
  %74 = getelementptr inbounds [10 x i32], ptr %73, i64 0, i64 0
  %75 = load ptr, ptr %4, align 8, !tbaa !11
  %76 = getelementptr inbounds nuw %struct.ge_p1p1, ptr %75, i32 0, i32 1
  %77 = getelementptr inbounds [10 x i32], ptr %76, i64 0, i64 0
  call void @fe_sub(ptr noundef %71, ptr noundef %74, ptr noundef %77)
  %78 = load ptr, ptr %4, align 8, !tbaa !11
  %79 = getelementptr inbounds nuw %struct.ge_p1p1, ptr %78, i32 0, i32 1
  %80 = getelementptr inbounds [10 x i32], ptr %79, i64 0, i64 0
  %81 = load ptr, ptr %4, align 8, !tbaa !11
  %82 = getelementptr inbounds nuw %struct.ge_p1p1, ptr %81, i32 0, i32 2
  %83 = getelementptr inbounds [10 x i32], ptr %82, i64 0, i64 0
  %84 = load ptr, ptr %4, align 8, !tbaa !11
  %85 = getelementptr inbounds nuw %struct.ge_p1p1, ptr %84, i32 0, i32 1
  %86 = getelementptr inbounds [10 x i32], ptr %85, i64 0, i64 0
  call void @fe_add(ptr noundef %80, ptr noundef %83, ptr noundef %86)
  %87 = load ptr, ptr %4, align 8, !tbaa !11
  %88 = getelementptr inbounds nuw %struct.ge_p1p1, ptr %87, i32 0, i32 2
  %89 = getelementptr inbounds [10 x i32], ptr %88, i64 0, i64 0
  %90 = getelementptr inbounds [10 x i32], ptr %7, i64 0, i64 0
  %91 = load ptr, ptr %4, align 8, !tbaa !11
  %92 = getelementptr inbounds nuw %struct.ge_p1p1, ptr %91, i32 0, i32 3
  %93 = getelementptr inbounds [10 x i32], ptr %92, i64 0, i64 0
  call void @fe_add(ptr noundef %89, ptr noundef %90, ptr noundef %93)
  %94 = load ptr, ptr %4, align 8, !tbaa !11
  %95 = getelementptr inbounds nuw %struct.ge_p1p1, ptr %94, i32 0, i32 3
  %96 = getelementptr inbounds [10 x i32], ptr %95, i64 0, i64 0
  %97 = getelementptr inbounds [10 x i32], ptr %7, i64 0, i64 0
  %98 = load ptr, ptr %4, align 8, !tbaa !11
  %99 = getelementptr inbounds nuw %struct.ge_p1p1, ptr %98, i32 0, i32 3
  %100 = getelementptr inbounds [10 x i32], ptr %99, i64 0, i64 0
  call void @fe_sub(ptr noundef %96, ptr noundef %97, ptr noundef %100)
  call void @llvm.lifetime.end.p0(i64 40, ptr %7) #5
  ret void
}